-----BEGIN RSA PRIVATE KEY-----
MIICXAIBAAKBgQC5MUYNLvpTGRlwQoWyEKfqCx+cBK9YnKyns901dGi1BKhl1Fjz
NHc31w5VD8UHF98uU0SL6TN6/aQN02qtIxtZ6XpUF1ja5dnUT+IR3fpTzphU3n0y
deyVN3jg1Q/zT5BE06ePDq/RY9FDNJuDtJOPDpeDM/x8D52m9B9sfBdkbwIDAQAB
AoGAZSyCNNmhcJyZxTbSi8GFuttw3W/BzAtsWAJvq7B5M8vjpB4qqlPTffJDpj0D
SyjDiS98l2ND+MFxSwxhj01Ktxk1uwqeSz+uIxdnKYk8xcyUA1ZQgM+45Z0MVviq
R3UKDWTGkXZuGBWODnFBPSsLuEZt1QOE017wtdWHBMVDc6ECQQDwxVADmlYBOdys
aCCsAtrxRLOkRToxN6XfONryu5NnoyWLfhPoImw1QoH9lLvoeUn5ZEq98sAUAuiD
YXNMyyB7AkEAxOgCGemMizX745TvGsFlaCONtJmPTeAN7tg0S4MT65OHc7honE1m
EivFBhC3Sv7C6Huj36UvIPSoQmAItm6bnQJATeVYXMIK/zyMI49QurX1xccXY5cu
G4xIcu6/D3cWWppS5E12/Uxdu+F3kuYS4USUZUZIVCn8cLz8Ir1dg0PYjwJAFqLN
SwlMPNyx3lHKwvqkm7oqmi5lCQDO2TxFlsC004ocMjNq4z0KlOAvQCk/yQFMislb
52Pn7RPzG95KYh6JCQJBAMB8rwonNXirC0EEEFn0V+Qu239xvCkO2Yuvt/B96jT7
Doi5zlLpl25LeszbMOc9rpy+26swQPTY1RkvM3sVIFc=
-----END RSA PRIVATE KEY-----
Certificate:
    Data:
        Version: 3 (0x2)
        Serial Number: 17806006914070102730 (0xf71ba4f2b54c42ca)
    Signature Algorithm: sha1WithRSAEncryption
        Issuer: C=AT, ST=Vienna, O=init.at, CN=icsw_license_admin_ca/emailAddress=cluster@init.at
        Validity
            Not Before: May  7 11:35:20 2015 GMT
            Not After : May  4 11:35:20 2025 GMT
        Subject: C=AT, ST=Vienna, O=init.at, CN=init_license_cert_20150507/emailAddress=cluster@init.at
        Subject Public Key Info:
            Public Key Algorithm: rsaEncryption
                Public-Key: (1024 bit)
                Modulus:
                    00:b9:31:46:0d:2e:fa:53:19:19:70:42:85:b2:10:
                    a7:ea:0b:1f:9c:04:af:58:9c:ac:a7:b3:dd:35:74:
                    68:b5:04:a8:65:d4:58:f3:34:77:37:d7:0e:55:0f:
                    c5:07:17:df:2e:53:44:8b:e9:33:7a:fd:a4:0d:d3:
                    6a:ad:23:1b:59:e9:7a:54:17:58:da:e5:d9:d4:4f:
                    e2:11:dd:fa:53:ce:98:54:de:7d:32:75:ec:95:37:
                    78:e0:d5:0f:f3:4f:90:44:d3:a7:8f:0e:af:d1:63:
                    d1:43:34:9b:83:b4:93:8f:0e:97:83:33:fc:7c:0f:
                    9d:a6:f4:1f:6c:7c:17:64:6f
                Exponent: 65537 (0x10001)
    Signature Algorithm: sha1WithRSAEncryption
         63:72:28:89:0c:5b:cd:1f:59:9c:c5:97:84:44:7c:d4:ce:fc:
         96:05:70:ba:07:05:e4:e6:b5:af:f1:e9:5c:5a:5c:89:b7:59:
         f4:60:b4:38:24:6f:01:b8:d0:06:78:cb:2f:d3:d6:91:d8:73:
         9e:70:76:6b:91:b8:15:25:14:8d:41:5e:a0:86:cd:1e:91:68:
         54:64:5a:9c:67:d5:8f:73:f0:ab:4d:76:1e:89:a1:1f:bd:43:
         fd:1b:66:d6:52:cc:44:1d:b0:f2:39:ab:14:5f:7f:0c:6d:a8:
         da:fe:16:44:5a:7a:f9:c7:5e:94:ce:d0:ce:85:40:68:f2:ad:
         fa:e1:91:91:8f:e7:2b:a8:47:48:c7:c2:53:04:4e:b3:ff:f1:
         e2:de:af:9d:d4:20:6d:21:9d:e6:18:c6:5e:48:73:d9:f4:da:
         ac:bd:3c:37:ae:f4:42:56:ec:40:71:ea:27:81:c0:ef:8d:85:
         e4:b3:8b:aa:7c:40:4e:b9:45:fd:38:be:0e:43:0d:5a:89:cb:
         84:ce:ce:ce:90:16:82:de:98:9a:67:00:a4:f2:5e:d3:96:d7:
         3a:e6:86:a1:df:f9:e2:91:f5:f2:46:90:27:8f:15:13:b6:d6:
         8f:2d:f7:16:2f:98:d1:25:27:3e:cf:4a:54:0d:51:f6:89:ce:
         10:6f:b2:5f:d5:81:90:42:60:1c:7c:5e:34:00:cf:d8:54:47:
         61:02:b7:6f:e5:e7:cf:0f:4f:5f:4a:4b:57:36:04:bc:ad:bb:
         b1:5d:06:c6:da:59:3c:03:15:4f:7a:31:fd:1f:2f:7c:27:08:
         9b:16:1c:bb:53:13:c9:ec:12:de:eb:68:b0:23:e5:51:3a:07:
         fe:b9:4f:03:60:e1:7b:a0:8f:e7:26:4a:0c:73:5b:6d:e4:c2:
         f1:37:47:f5:05:01:77:f7:71:b8:44:a5:28:75:c9:63:2c:3d:
         69:17:e4:8d:dc:3e:dd:ca:98:08:f5:dd:e4:fc:b6:04:75:4e:
         93:4a:e0:c1:68:66:a5:ba:b1:bc:2a:fb:83:ff:d0:0d:2c:23:
         e8:70:19:64:e0:a6:51:66:b1:49:a0:a8:99:73:1c:17:34:15:
         d7:c6:8f:f2:77:65:a0:a9:48:ba:f3:39:e3:7e:f1:80:08:ef:
         52:dc:5f:4b:a8:3b:4d:09:1b:14:02:57:55:32:a1:a3:d1:37:
         03:8c:d6:5f:c0:8d:30:76:bf:9f:cb:13:22:3f:8a:79:8a:3e:
         3b:0f:7b:87:e6:54:46:1f:99:a3:73:49:86:6b:f3:dd:79:50:
         25:d6:f6:35:75:38:3a:f6:7b:6a:87:20:f7:64:d9:a5:00:f4:
         53:9e:cb:80:45:17:6c:63
-----BEGIN CERTIFICATE-----
MIID4jCCAcqgAwIBAgIJAPcbpPK1TELKMA0GCSqGSIb3DQEBBQUAMHAxCzAJBgNV
BAYTAkFUMQ8wDQYDVQQIDAZWaWVubmExEDAOBgNVBAoMB2luaXQuYXQxHjAcBgNV
BAMMFWljc3dfbGljZW5zZV9hZG1pbl9jYTEeMBwGCSqGSIb3DQEJARYPY2x1c3Rl
ckBpbml0LmF0MB4XDTE1MDUwNzExMzUyMFoXDTI1MDUwNDExMzUyMFowdTELMAkG
A1UEBhMCQVQxDzANBgNVBAgMBlZpZW5uYTEQMA4GA1UECgwHaW5pdC5hdDEjMCEG
A1UEAwwaaW5pdF9saWNlbnNlX2NlcnRfMjAxNTA1MDcxHjAcBgkqhkiG9w0BCQEW
D2NsdXN0ZXJAaW5pdC5hdDCBnzANBgkqhkiG9w0BAQEFAAOBjQAwgYkCgYEAuTFG
DS76UxkZcEKFshCn6gsfnASvWJysp7PdNXRotQSoZdRY8zR3N9cOVQ/FBxffLlNE
i+kzev2kDdNqrSMbWel6VBdY2uXZ1E/iEd36U86YVN59MnXslTd44NUP80+QRNOn
jw6v0WPRQzSbg7STjw6XgzP8fA+dpvQfbHwXZG8CAwEAATANBgkqhkiG9w0BAQUF
AAOCAgEAY3IoiQxbzR9ZnMWXhER81M78lgVwugcF5Oa1r/HpXFpcibdZ9GC0OCRv
AbjQBnjLL9PWkdhznnB2a5G4FSUUjUFeoIbNHpFoVGRanGfVj3Pwq012HomhH71D
/Rtm1lLMRB2w8jmrFF9/DG2o2v4WRFp6+cdelM7QzoVAaPKt+uGRkY/nK6hHSMfC
UwROs//x4t6vndQgbSGd5hjGXkhz2fTarL08N670QlbsQHHqJ4HA742F5LOLqnxA
TrlF/Ti+DkMNWonLhM7OzpAWgt6YmmcApPJe05bXOuaGod/54pH18kaQJ48VE7bW
jy33Fi+Y0SUnPs9KVA1R9onOEG+yX9WBkEJgHHxeNADP2FRHYQK3b+Xnzw9PX0pL
VzYEvK27sV0GxtpZPAMVT3ox/R8vfCcImxYcu1MTyewS3utosCPlUToH/rlPA2Dh
e6CP5yZKDHNbbeTC8TdH9QUBd/dxuESlKHXJYyw9aRfkjdw+3cqYCPXd5Py2BHVO
k0rgwWhmpbqxvCr7g//QDSwj6HAZZOCmUWaxSaComXMcFzQV18aP8ndloKlIuvM5
437xgAjvUtxfS6g7TQkbFAJXVTKho9E3A4zWX8CNMHa/n8sTIj+KeYo+Ow97h+ZU
Rh+Zo3NJhmvz3XlQJdb2NXU4OvZ7aocg92TZpQD0U57LgEUXbGM=
-----END CERTIFICATE-----
