Certificate:
    Data:
        Version: 3 (0x2)
        Serial Number: 17806006914070102731 (0xf71ba4f2b54c42cb)
    Signature Algorithm: sha1WithRSAEncryption
        Issuer: C=AT, ST=Vienna, O=init.at, CN=icsw_license_admin_ca/emailAddress=cluster@init.at
        Validity
            Not Before: May 12 15:13:02 2015 GMT
            Not After : May  9 15:13:02 2025 GMT
        Subject: C=AT, ST=Vienna, O=init.at, CN=init_license_cert_20150512/emailAddress=cluster@init.at
        Subject Public Key Info:
            Public Key Algorithm: rsaEncryption
                Public-Key: (1024 bit)
                Modulus:
                    00:c6:61:0d:61:0b:6d:75:25:9e:56:bd:2f:12:2b:
                    46:bb:ec:6e:e1:fb:ad:fb:96:9a:ed:c9:b9:c1:18:
                    1c:ac:5a:c0:37:8b:20:3d:0b:fa:34:ed:9e:f8:ee:
                    2d:e4:f6:70:bd:de:c3:24:44:86:49:38:81:f3:ce:
                    bf:7b:2d:14:b9:1d:81:16:2c:55:13:44:ff:ce:50:
                    50:66:5d:6f:a4:75:53:4e:d6:6e:34:13:45:f7:b0:
                    18:e1:ac:1f:3c:c6:57:50:29:53:bd:94:ee:ae:e3:
                    7b:48:a7:da:41:a0:02:b4:84:63:28:cb:17:10:c0:
                    bb:80:07:b3:bf:18:da:5a:9d
                Exponent: 65537 (0x10001)
    Signature Algorithm: sha1WithRSAEncryption
         be:4f:b9:bc:8d:ad:67:6c:ea:1f:9e:ad:e7:4e:f9:a2:18:69:
         df:0e:ac:54:3c:e6:17:15:89:01:f4:df:59:dd:9a:f2:5a:4b:
         71:8e:e4:91:1f:17:b0:74:a7:88:4d:55:ea:9d:f3:49:9a:b1:
         3a:d7:6d:16:51:26:14:5f:a6:1c:34:b2:38:10:9d:34:af:1e:
         b3:06:72:51:18:41:f0:00:37:e6:ee:6c:a4:72:d9:ba:7d:97:
         ce:38:07:d2:ca:0d:52:5b:1f:c9:24:0e:e6:d4:32:b0:e0:fa:
         c9:fe:61:40:a5:d2:27:fc:ea:1d:a5:f9:fd:17:97:4b:39:2c:
         1c:ef:26:c0:90:6e:61:a7:e1:3a:0a:71:43:b0:9b:50:15:fe:
         97:d4:55:c7:11:61:f0:d2:8e:24:9d:67:53:76:98:00:cc:5b:
         f9:66:78:4a:8c:46:89:0b:d0:83:c3:03:8a:ef:8f:a0:3e:28:
         00:e5:54:ce:c3:8a:86:bf:93:1f:4d:b4:dd:35:09:d1:a7:f0:
         3b:b5:ea:39:e4:72:7e:cb:0c:cc:85:cb:fb:f6:10:9e:66:99:
         ee:87:49:81:bb:09:e5:3b:b5:7a:c3:81:85:b5:96:c2:4b:4c:
         d2:b6:17:0b:29:00:7f:29:73:a8:b6:b8:d2:5b:be:41:ba:6e:
         2a:4e:f9:20:6d:db:e7:02:3f:4c:b1:d1:b8:1c:a1:0d:a5:ce:
         25:66:31:5b:c1:f2:8d:88:81:a6:4c:75:dd:55:51:f9:3e:1a:
         f7:ec:74:05:aa:e1:99:fc:77:d8:9c:e5:9f:8d:7e:62:b2:5d:
         a7:98:86:28:8f:9f:01:a3:0a:70:97:22:b1:88:25:9e:ca:4e:
         52:aa:e1:90:f7:47:92:32:0e:b6:ef:20:06:e4:1c:80:09:0a:
         a2:db:46:11:8e:d5:b1:0f:b4:76:aa:9c:f3:45:20:7a:b8:58:
         89:52:1d:de:b1:07:ae:3e:9c:3e:79:07:50:a6:89:3e:98:38:
         a8:39:f5:00:06:02:f7:f8:07:ea:90:5b:3c:7b:27:03:93:1f:
         20:30:fd:04:30:36:a0:7a:e2:ab:1d:4a:68:c0:dd:af:38:52:
         1d:4c:e2:62:32:a7:48:45:75:e1:df:bf:c2:d6:b0:e3:1f:ab:
         66:d7:89:92:9a:28:2f:76:36:f5:41:ca:77:38:fd:fe:45:7c:
         26:97:12:be:63:8d:cd:d6:62:1d:8f:b1:7a:25:15:72:72:8e:
         cf:96:44:d9:db:99:cc:4c:57:77:5b:cb:28:d9:d7:ed:57:73:
         db:3a:73:c4:b7:1a:9a:50:27:5a:2e:bf:eb:1d:b9:c3:ea:bd:
         e6:b5:25:83:fe:cd:ed:4b
-----BEGIN CERTIFICATE-----
MIID4jCCAcqgAwIBAgIJAPcbpPK1TELLMA0GCSqGSIb3DQEBBQUAMHAxCzAJBgNV
BAYTAkFUMQ8wDQYDVQQIDAZWaWVubmExEDAOBgNVBAoMB2luaXQuYXQxHjAcBgNV
BAMMFWljc3dfbGljZW5zZV9hZG1pbl9jYTEeMBwGCSqGSIb3DQEJARYPY2x1c3Rl
ckBpbml0LmF0MB4XDTE1MDUxMjE1MTMwMloXDTI1MDUwOTE1MTMwMlowdTELMAkG
A1UEBhMCQVQxDzANBgNVBAgMBlZpZW5uYTEQMA4GA1UECgwHaW5pdC5hdDEjMCEG
A1UEAwwaaW5pdF9saWNlbnNlX2NlcnRfMjAxNTA1MTIxHjAcBgkqhkiG9w0BCQEW
D2NsdXN0ZXJAaW5pdC5hdDCBnzANBgkqhkiG9w0BAQEFAAOBjQAwgYkCgYEAxmEN
YQttdSWeVr0vEitGu+xu4fut+5aa7cm5wRgcrFrAN4sgPQv6NO2e+O4t5PZwvd7D
JESGSTiB886/ey0UuR2BFixVE0T/zlBQZl1vpHVTTtZuNBNF97AY4awfPMZXUClT
vZTuruN7SKfaQaACtIRjKMsXEMC7gAezvxjaWp0CAwEAATANBgkqhkiG9w0BAQUF
AAOCAgEAvk+5vI2tZ2zqH56t5075ohhp3w6sVDzmFxWJAfTfWd2a8lpLcY7kkR8X
sHSniE1V6p3zSZqxOtdtFlEmFF+mHDSyOBCdNK8eswZyURhB8AA35u5spHLZun2X
zjgH0soNUlsfySQO5tQysOD6yf5hQKXSJ/zqHaX5/ReXSzksHO8mwJBuYafhOgpx
Q7CbUBX+l9RVxxFh8NKOJJ1nU3aYAMxb+WZ4SoxGiQvQg8MDiu+PoD4oAOVUzsOK
hr+TH0203TUJ0afwO7XqOeRyfssMzIXL+/YQnmaZ7odJgbsJ5Tu1esOBhbWWwktM
0rYXCykAfylzqLa40lu+QbpuKk75IG3b5wI/TLHRuByhDaXOJWYxW8HyjYiBpkx1
3VVR+T4a9+x0Barhmfx32Jzln41+YrJdp5iGKI+fAaMKcJcisYglnspOUqrhkPdH
kjIOtu8gBuQcgAkKottGEY7VsQ+0dqqc80UgerhYiVId3rEHrj6cPnkHUKaJPpg4
qDn1AAYC9/gH6pBbPHsnA5MfIDD9BDA2oHriqx1KaMDdrzhSHUziYjKnSEV14d+/
wtaw4x+rZteJkpooL3Y29UHKdzj9/kV8JpcSvmONzdZiHY+xeiUVcnKOz5ZE2duZ
zExXd1vLKNnX7Vdz2zpzxLcamlAnWi6/6x25w+q95rUlg/7N7Us=
-----END CERTIFICATE-----
