Certificate:
    Data:
        Version: 3 (0x2)
        Serial Number: 17210279536437562883 (0xeed7320dee890e03)
    Signature Algorithm: sha1WithRSAEncryption
        Issuer: C=AT, ST=Vienna, O=init.at, CN=mallinger_ca/emailAddress=cluster@init.at
        Validity
            Not Before: Mar  9 10:16:22 2015 GMT
            Not After : Mar  6 10:16:22 2025 GMT
        Subject: C=AT, ST=Vienna, O=init.at, CN=mallinger/emailAddress=cluster@init.at
        Subject Public Key Info:
            Public Key Algorithm: rsaEncryption
                Public-Key: (1024 bit)
                Modulus:
                    00:bc:d6:6b:fd:4e:66:87:30:57:0d:5e:70:58:a7:
                    7a:7c:74:dd:4e:5b:7f:a5:f5:b7:85:2a:f2:02:69:
                    94:f9:d3:d7:5f:29:a2:1a:0d:63:94:f0:7c:1b:11:
                    9f:16:15:2c:23:8e:cd:9f:df:eb:e5:fb:db:d4:2c:
                    22:a0:e2:e1:7a:58:f4:b6:85:69:ce:fa:0a:80:aa:
                    5d:23:a5:f9:99:39:dd:74:6b:4e:3f:01:be:82:e6:
                    e1:b6:54:aa:d5:94:d1:ce:a9:e8:5e:16:df:c6:60:
                    3c:dc:a9:61:66:3a:e6:cf:43:4e:e5:12:7b:19:73:
                    3a:cd:95:74:49:c4:36:28:37
                Exponent: 65537 (0x10001)
    Signature Algorithm: sha1WithRSAEncryption
         89:0c:fe:72:dd:dd:0f:34:7c:15:8e:45:e5:12:a7:1d:d6:c7:
         b9:5d:45:d4:29:da:55:ef:1a:65:07:a7:29:93:4c:02:2f:ff:
         43:f1:a3:16:7b:c5:ba:f0:44:9d:16:12:71:8c:43:f5:ea:d9:
         05:dc:d8:0f:a9:40:8c:a2:93:83:e2:69:27:c4:58:50:1b:b5:
         7a:72:12:db:5c:9a:51:48:e1:08:f4:45:76:b1:38:c5:40:64:
         80:cc:f8:16:af:79:46:54:21:34:05:68:e3:b3:dc:ef:90:74:
         8c:74:95:ac:77:de:9f:ee:de:f3:9a:e8:e0:3a:eb:9f:19:a4:
         d8:ed:6a:d7:e9:ad:fa:ea:2b:a5:0b:2a:d6:55:ee:8e:a7:31:
         74:6a:31:f0:da:4e:90:3d:d2:47:82:14:a3:86:3b:8f:d5:36:
         7a:c9:ac:32:0b:59:ad:37:00:79:16:e5:0e:e2:03:93:80:72:
         a7:53:f0:44:c1:77:fb:98:99:6d:8a:df:db:1e:98:d9:d8:eb:
         6d:f4:ae:4f:c2:d9:fb:bc:5a:2f:0d:b1:91:0c:d7:ae:b2:b1:
         25:94:f5:8c:86:c6:0c:fd:dc:90:34:1f:7b:96:2a:fc:66:ba:
         2e:c6:78:76:72:bd:73:b9:75:35:de:fb:2e:3b:c7:08:6a:59:
         65:b8:1e:86:70:f5:5a:ef:55:99:90:00:9b:66:00:f4:e2:7d:
         47:1b:13:2f:15:ed:60:ac:34:2c:5b:a7:49:9a:4e:55:d4:a0:
         89:1c:85:d3:cf:28:f5:a9:ef:0f:18:7b:94:10:f3:f4:6b:b7:
         41:03:4e:75:61:c6:8f:3b:0b:4b:97:52:b2:1f:19:9d:3a:7d:
         ff:11:d9:6f:b6:4e:93:2e:23:d4:cd:6f:48:fd:9a:d1:42:59:
         0a:bf:c8:0e:59:9b:a0:e9:90:15:f0:39:9d:32:44:21:08:fd:
         7a:09:9f:a1:77:ad:75:5e:11:89:fb:8e:cf:4e:92:61:5b:ab:
         6d:f0:4e:2c:eb:af:b2:9a:79:0f:a6:53:32:30:e0:c4:87:15:
         f9:2c:2d:29:4b:c8:83:c3:7e:bc:11:a0:90:63:c1:f6:da:02:
         01:14:ec:e2:0e:fa:43:9a:80:89:e2:c3:86:53:0a:ac:c5:06:
         90:3a:0c:11:e6:d4:c4:7b:30:7e:e9:d3:f2:c9:27:ad:d6:49:
         c8:2a:65:32:fa:2c:b1:57:a1:b6:1a:bc:35:8b:d0:cc:c9:47:
         35:fa:8f:c6:a3:35:8b:ab:6c:1f:71:c5:5e:34:1c:7b:bc:1a:
         03:8d:05:94:f7:74:a4:97:4e:ee:f4:be:7f:f4:f7:e5:28:9e:
         ce:a0:01:50:c9:98:7e:96
-----BEGIN CERTIFICATE-----
MIIDyDCCAbCgAwIBAgIJAO7XMg3uiQ4DMA0GCSqGSIb3DQEBBQUAMGcxCzAJBgNV
BAYTAkFUMQ8wDQYDVQQIDAZWaWVubmExEDAOBgNVBAoMB2luaXQuYXQxFTATBgNV
BAMMDG1hbGxpbmdlcl9jYTEeMBwGCSqGSIb3DQEJARYPY2x1c3RlckBpbml0LmF0
MB4XDTE1MDMwOTEwMTYyMloXDTI1MDMwNjEwMTYyMlowZDELMAkGA1UEBhMCQVQx
DzANBgNVBAgMBlZpZW5uYTEQMA4GA1UECgwHaW5pdC5hdDESMBAGA1UEAwwJbWFs
bGluZ2VyMR4wHAYJKoZIhvcNAQkBFg9jbHVzdGVyQGluaXQuYXQwgZ8wDQYJKoZI
hvcNAQEBBQADgY0AMIGJAoGBALzWa/1OZocwVw1ecFinenx03U5bf6X1t4Uq8gJp
lPnT118pohoNY5TwfBsRnxYVLCOOzZ/f6+X729QsIqDi4XpY9LaFac76CoCqXSOl
+Zk53XRrTj8BvoLm4bZUqtWU0c6p6F4W38ZgPNypYWY65s9DTuUSexlzOs2VdEnE
Nig3AgMBAAEwDQYJKoZIhvcNAQEFBQADggIBAIkM/nLd3Q80fBWOReUSpx3Wx7ld
RdQp2lXvGmUHpymTTAIv/0PxoxZ7xbrwRJ0WEnGMQ/Xq2QXc2A+pQIyik4PiaSfE
WFAbtXpyEttcmlFI4Qj0RXaxOMVAZIDM+BaveUZUITQFaOOz3O+QdIx0lax33p/u
3vOa6OA6658ZpNjtatfprfrqK6ULKtZV7o6nMXRqMfDaTpA90keCFKOGO4/VNnrJ
rDILWa03AHkW5Q7iA5OAcqdT8ETBd/uYmW2K39semNnY6230rk/C2fu8Wi8NsZEM
166ysSWU9YyGxgz93JA0H3uWKvxmui7GeHZyvXO5dTXe+y47xwhqWWW4HoZw9Vrv
VZmQAJtmAPTifUcbEy8V7WCsNCxbp0maTlXUoIkchdPPKPWp7w8Ye5QQ8/Rrt0ED
TnVhxo87C0uXUrIfGZ06ff8R2W+2TpMuI9TNb0j9mtFCWQq/yA5Zm6DpkBXwOZ0y
RCEI/XoJn6F3rXVeEYn7js9OkmFbq23wTizrr7KaeQ+mUzIw4MSHFfksLSlLyIPD
frwRoJBjwfbaAgEU7OIO+kOagIniw4ZTCqzFBpA6DBHm1MR7MH7p0/LJJ63WScgq
ZTL6LLFXobYavDWL0MzJRzX6j8ajNYurbB9xxV40HHu8GgONBZT3dKSXTu70vn/0
9+Uons6gAVDJmH6W
-----END CERTIFICATE-----
